Microchip MPLAB XC8 Compiler V2.35

Linker command line:

-W-3 --edf=C:\Program Files\Microchip\xc8\v2.35\pic\dat\en_msgs.txt -cn \
  -h+dist/default/production\Prelaboratorio2.X.production.sym \
  --cmf=dist/default/production\Prelaboratorio2.X.production.cmf -z \
  -Q16F887 -oC:\Users\Sergi\AppData\Local\Temp\xcAsigg.4 \
  --defsym=__MPLAB_BUILD=1 \
  -Mdist/default/production/Prelaboratorio2.X.production.map \
  --md=C:\Users\Sergi\AppData\Local\Temp\xcAsigg.dat -E1 -ver=XC8 Compiler \
  --acfsm=1493 -ACODE=00h-07FFhx4 -ASTRCODE=00h-01FFFh -ASTRING=00h-0FFhx32 \
  -ACONST=00h-0FFhx32 -AENTRY=00h-0FFhx32 -ACOMMON=070h-07Fh \
  -ABANK0=020h-06Fh -ABANK1=0A0h-0EFh -ABANK2=0110h-016Fh \
  -ABANK3=0190h-01EFh -ARAM=020h-06Fh,0A0h-0EFh,0110h-016Fh,0190h-01EFh \
  -AABS1=020h-07Fh,0A0h-0EFh,0110h-016Fh,0190h-01EFh -ASFR0=00h-01Fh \
  -ASFR1=080h-09Fh -ASFR2=0100h-010Fh -ASFR3=0180h-018Fh \
  -ACONFIG=02007h-02008h -DCONFIG=2 -AIDLOC=02000h-02003h -DIDLOC=2 \
  -AEEDATA=00h-0FFh/02100h -peeprom_data=EEDATA -DEEDATA=2 -DCODE=2 \
  -DSTRCODE=2 -DSTRING=2 -DCONST=2 -DENTRY=2 \
  -preset_vec=00h,intentry=04h,init,end_init -ppowerup=CODE -pcinit=CODE \
  -pfunctab=ENTRY -k C:\Users\Sergi\AppData\Local\Temp\xcAsigg.o \
  dist/default/production\Prelaboratorio2.X.production.o 

Object code version is 3.11

Machine type is 16F887



                Name                               Link     Load   Length Selector   Space Scale
C:\Users\Sergi\AppData\Local\Temp\xcAsigg.o
                end_init                             10       10        3        8       0
                reset_vec                             0        0        3        0       0
                config                             2007     2007        2        0       4
                idloc                              2000     2000        4        0       5
dist/default/production\Prelaboratorio2.X.production.o
                cinit                                13       13       17        8       0
                intentry                              4        4        C        8       0
                config                             2007     2007        2        0       4
                idloc                              2000     2000        4        0       5
                text19                              D89      D89       1E     1B12       0
                text18                              DCD      DCD       27     1B9A       0
                text17                               2A       2A      361        8       0
                text16                              764      764       7C        8       0
                text15                              603      603       BA        8       0
                text14                              46A      46A       DC        8       0
                text13                              6BD      6BD       A7        8       0
                text12                              D65      D65        8     1ACA       0
                text11                              7E0      7E0       20        8       0
                text10                              DA7      DA7       26     1B4E       0
                text9                               D6D      D6D       1C     1ADA       0
                text8                               DF4      DF4       29     1BE8       0
                text7                               F27      F27       69     1E4E       0
                text6                               ECC      ECC       5B     1D98       0
                text5                               546      546       BD        8       0
                text4                               E80      E80       4C     1D00       0
                text3                               F90      F90       70     1F20       0
                text2                               E4D      E4D       33     1C9A       0
                text1                               E1D      E1D       30     1C3A       0
                maintext                            38B      38B       DF        8       0
                cstackBANK0                          20       20       2D       20       1
                cstackCOMMON                         70       70        E       70       1
                cstackBANK1                          A0       A0       12       A0       1
                bssBANK1                             B2       B2        8       A0       1
                bssBANK0                             4D       4D        7       20       1
                strings                             800      800       17     1000       0

TOTAL           Name                               Link     Load   Length     Space
        CLASS   CODE           
                end_init                             10       10        3         0
                cinit                                13       13       17         0
                intentry                              4        4        C         0
                reset_vec                             0        0        3         0
                text19                              D89      D89       1E         0
                text18                              DCD      DCD       27         0
                text17                               2A       2A      361         0
                text16                              764      764       7C         0
                text15                              603      603       BA         0
                text14                              46A      46A       DC         0
                text13                              6BD      6BD       A7         0
                text12                              D65      D65        8         0
                text11                              7E0      7E0       20         0
                text10                              DA7      DA7       26         0
                text9                               D6D      D6D       1C         0
                text8                               DF4      DF4       29         0
                text7                               F27      F27       69         0
                text6                               ECC      ECC       5B         0
                text5                               546      546       BD         0
                text4                               E80      E80       4C         0
                text3                               F90      F90       70         0
                text2                               E4D      E4D       33         0
                text1                               E1D      E1D       30         0
                maintext                            38B      38B       DF         0

        CLASS   STRCODE        

        CLASS   STRING         
                strings                             800      800       17         0

        CLASS   CONST          

        CLASS   ENTRY          

        CLASS   COMMON         
                cstackCOMMON                         70       70        E         1

        CLASS   BANK0          
                cstackBANK0                          20       20       2D         1
                bssBANK0                             4D       4D        7         1

        CLASS   BANK1          
                cstackBANK1                          A0       A0       12         1
                bssBANK1                             B2       B2        8         1

        CLASS   BANK2          

        CLASS   BANK3          

        CLASS   RAM            

        CLASS   ABS1           
                abs_s1                               7E       7E        2         1

        CLASS   SFR0           

        CLASS   SFR1           

        CLASS   SFR2           

        CLASS   SFR3           

        CLASS   CONFIG         
                config                             2007     2007        2         4

        CLASS   IDLOC          
                idloc                              2000     2000        4         5

        CLASS   EEDATA         

        CLASS   STACK          



SEGMENTS        Name                           Load    Length   Top    Selector   Space  Class     Delta

                reset_vec                      000000  000003  000003         0       0  CODE        2
                intentry                       000004  0007FC  000800         8       0  CODE        2
                cstackBANK0                    000020  000034  000054        20       1  BANK0       1
                cstackCOMMON                   000070  00000E  00007E        70       1  COMMON      1
                cstackBANK1                    0000A0  00001A  0000BA        A0       1  BANK1       1
                strings                        000800  000017  000817      1000       0  STRING      2
                text12                         000D65  000008  000D6D      1ACA       0  CODE        2
                text9                          000D6D  00001C  000D89      1ADA       0  CODE        2
                text19                         000D89  00001E  000DA7      1B12       0  CODE        2
                text10                         000DA7  000026  000DCD      1B4E       0  CODE        2
                text18                         000DCD  000027  000DF4      1B9A       0  CODE        2
                text8                          000DF4  000029  000E1D      1BE8       0  CODE        2
                text1                          000E1D  000030  000E4D      1C3A       0  CODE        2
                text2                          000E4D  000033  000E80      1C9A       0  CODE        2
                text4                          000E80  00004C  000ECC      1D00       0  CODE        2
                text6                          000ECC  00005B  000F27      1D98       0  CODE        2
                text7                          000F27  000069  000F90      1E4E       0  CODE        2
                text3                          000F90  000070  001000      1F20       0  CODE        2


UNUSED ADDRESS RANGES

        Name                Unused          Largest block    Delta
        BANK0            0054-006F             1C           1
        BANK1            00BA-00EF             36           1
        BANK2            0110-016F             60           1
        BANK3            0190-01EF             60           1
        CODE             0003-0003              1           2
                         0817-0D64            54E
                         1000-1FFF            800
        CONST            0003-0003              1           2
                         0817-0D64            100
                         1000-1FFF            100
        EEDATA           2100-21FF            100           2
        ENTRY            0003-0003              1           2
                         0817-0D64            100
                         1000-1FFF            100
        RAM              0054-006F             1C           1
                         00BA-00EF             36
                         0110-016F             60
                         0190-01EF             60
        SFR0             0000-001F             20           1
        SFR1             0080-009F             20           1
        SFR2             0100-010F             10           1
        SFR3             0180-018F             10           1
        STRCODE          0003-0003              1           2
                         0817-0D64            54E
                         1000-1FFF           1000
        STRING           0003-0003              1           2
                         0817-0D64            100
                         1000-1FFF            100

                                  Symbol Table

?_ADC_read                cstackCOMMON 0070
?__Umul8_16               cstackCOMMON 0070
?___awdiv                 cstackBANK1  00A0
?___awmod                 cstackBANK1  00A0
?___flmul                 cstackBANK0  0020
?___fltol                 cstackBANK0  003A
?___xxtofl                cstackCOMMON 0070
ADC_read@read             cstackCOMMON 0074
ADC_start@channel         cstackBANK1  00A2
Lcd_Cmd@a                 cstackBANK1  00A3
Lcd_Port@a                cstackBANK1  00A0
Lcd_Set_Cursor@a          cstackBANK1  00A6
Lcd_Set_Cursor@b          cstackBANK1  00A4
Lcd_Set_Cursor@temp       cstackBANK1  00A7
Lcd_Write_Char@a          cstackBANK1  00A2
Lcd_Write_String@a        cstackBANK1  00A5
Lcd_Write_String@i        cstackBANK1  00A3
Voltage_val@ADC_val       cstackBANK1  00A9
Voltage_val@channel       cstackBANK1  00AB
_ADCON0bits               (abs)        001F
_ADCON1bits               (abs)        009F
_ADC_channel_00           bssBANK0     004F
_ADC_channel_01           bssBANK0     004D
_ADC_read                 text19       0D89
_ADC_start                text13       06BD
_ADRESH                   (abs)        001E
_ADRESL                   (abs)        009E
_ANSEL                    (abs)        0188
_ANSELH                   (abs)        0189
_Digits_Voltage1          bssBANK1     00B6
_Digits_Voltage2          bssBANK1     00B2
_INTCONbits               (abs)        000B
_Lcd_Cmd                  text11       07E0
_Lcd_Init                 text4        0E80
_Lcd_Port                 text12       0D65
_Lcd_Set_Cursor           text10       0DA7
_Lcd_Write_Char           text9        0D6D
_Lcd_Write_String         text8        0DF4
_OSCCONbits               (abs)        008F
_PIE1bits                 (abs)        008C
_PIR1bits                 (abs)        000C
_PORTA                    (abs)        0005
_PORTC                    (abs)        0007
_PORTCbits                (abs)        0007
_PORTD                    (abs)        0008
_RC7                      (abs)        003F
_TRISA                    (abs)        0085
_TRISC                    (abs)        0087
_TRISD                    (abs)        0088
_Voltage_val              text5        0546
__Habs1                   abs1         0000
__Hbank0                  bank0        0000
__Hbank1                  bank1        0000
__Hbank2                  bank2        0000
__Hbank3                  bank3        0000
__HbssBANK0               bssBANK0     0000
__HbssBANK1               bssBANK1     0000
__Hcinit                  cinit        002A
__Hclrtext                clrtext      0000
__Hcode                   code         0000
__Hcommon                 common       0000
__Hconfig                 config       2009
__HcstackBANK0            cstackBANK0  0000
__HcstackBANK1            cstackBANK1  0000
__HcstackCOMMON           cstackCOMMON 0000
__Heeprom_data            eeprom_data  0000
__Hend_init               end_init     0013
__Hfunctab                functab      0000
__Hidloc                  idloc        2004
__Hinit                   init         0010
__Hintentry               intentry     0010
__Hmaintext               maintext     0000
__Hpowerup                powerup      0000
__Hram                    ram          0000
__Hreset_vec              reset_vec    0003
__Hsfr0                   sfr0         0000
__Hsfr1                   sfr1         0000
__Hsfr2                   sfr2         0000
__Hsfr3                   sfr3         0000
__Hspace_0                (abs)        1000
__Hspace_1                (abs)        00BA
__Hspace_2                (abs)        0000
__Hspace_3                (abs)        0000
__Hspace_4                (abs)        4010
__Hstack                  stack        0000
__Hstrings                strings      0000
__Htext                   text         0000
__Labs1                   abs1         0000
__Lbank0                  bank0        0000
__Lbank1                  bank1        0000
__Lbank2                  bank2        0000
__Lbank3                  bank3        0000
__LbssBANK0               bssBANK0     0000
__LbssBANK1               bssBANK1     0000
__Lcinit                  cinit        0013
__Lclrtext                clrtext      0000
__Lcode                   code         0000
__Lcommon                 common       0000
__Lconfig                 config       0000
__LcstackBANK0            cstackBANK0  0000
__LcstackBANK1            cstackBANK1  0000
__LcstackCOMMON           cstackCOMMON 0000
__Leeprom_data            eeprom_data  0000
__Lend_init               end_init     0010
__Lfunctab                functab      0000
__Lidloc                  idloc        0000
__Linit                   init         0010
__Lintentry               intentry     0004
__Lmaintext               maintext     0000
__Lpowerup                powerup      0000
__Lram                    ram          0000
__Lreset_vec              reset_vec    0000
__Lsfr0                   sfr0         0000
__Lsfr1                   sfr1         0000
__Lsfr2                   sfr2         0000
__Lsfr3                   sfr3         0000
__Lspace_0                (abs)        0000
__Lspace_1                (abs)        0000
__Lspace_2                (abs)        0000
__Lspace_3                (abs)        0000
__Lspace_4                (abs)        0000
__Lstack                  stack        0000
__Lstrings                strings      0000
__Ltext                   text         0000
__S0                      (abs)        1000
__S1                      (abs)        00BA
__S3                      (abs)        0000
__Umul8_16                text18       0DCD
__Umul8_16@multiplicand   cstackCOMMON 0070
__Umul8_16@multiplier     cstackCOMMON 0078
__Umul8_16@product        cstackCOMMON 0074
__Umul8_16@word_mpld      cstackCOMMON 0076
___awdiv                  text7        0F27
___awdiv@counter          cstackBANK1  00A5
___awdiv@dividend         cstackBANK1  00A2
___awdiv@divisor          cstackBANK1  00A0
___awdiv@quotient         cstackBANK1  00A7
___awdiv@sign             cstackBANK1  00A6
___awmod                  text6        0ECC
___awmod@counter          cstackBANK1  00A5
___awmod@dividend         cstackBANK1  00A2
___awmod@divisor          cstackBANK1  00A0
___awmod@sign             cstackBANK1  00A6
___flmul                  text17       002A
___flmul@a                cstackBANK0  0024
___flmul@aexp             cstackBANK0  0032
___flmul@b                cstackBANK0  0020
___flmul@bexp             cstackBANK0  0033
___flmul@grs              cstackBANK0  002E
___flmul@prod             cstackBANK0  0034
___flmul@sign             cstackBANK0  002D
___flmul@temp             cstackBANK0  0038
___fltol                  text16       0764
___fltol@exp1             cstackBANK0  0044
___fltol@f1               cstackBANK0  003A
___fltol@sign1            cstackBANK0  0043
___int_sp                 stack        0000
___latbits                (abs)        0002
___sp                     stack        0000
___stackhi                (abs)        0000
___stacklo                (abs)        0000
___xxtofl                 text15       0603
___xxtofl@arg             cstackCOMMON 007A
___xxtofl@exp             cstackCOMMON 0079
___xxtofl@sign            cstackCOMMON 0078
___xxtofl@val             cstackCOMMON 0070
__end_of_ADC_read         text19       0DA7
__end_of_ADC_start        text13       0764
__end_of_Lcd_Cmd          text11       0800
__end_of_Lcd_Init         text4        0ECC
__end_of_Lcd_Port         text12       0D6D
__end_of_Lcd_Set_Cursor   text10       0DCD
__end_of_Lcd_Write_Char   text9        0D89
__end_of_Lcd_Write_String text8        0E1D
__end_of_Voltage_val      text5        0603
__end_of__Umul8_16        text18       0DF4
__end_of___awdiv          text7        0F90
__end_of___awmod          text6        0F27
__end_of___flmul          text17       038B
__end_of___fltol          text16       07E0
__end_of___xxtofl         text15       06BD
__end_of__initialization  cinit        0026
__end_of__stringtab       strings      0806
__end_of_init_ADC         text3        1000
__end_of_init_osc_MHz     text2        0E80
__end_of_isr              text14       0546
__end_of_main             maintext     046A
__end_of_setup            text1        0E4D
__initialization          cinit        0013
__pbssBANK0               bssBANK0     004D
__pbssBANK1               bssBANK1     00B2
__pcstackBANK0            cstackBANK0  0020
__pcstackBANK1            cstackBANK1  00A0
__pcstackCOMMON           cstackCOMMON 0070
__pintentry               intentry     0004
__pmaintext               maintext     038B
__pstrings                strings      0800
__ptext1                  text1        0E1D
__ptext10                 text10       0DA7
__ptext11                 text11       07E0
__ptext12                 text12       0D65
__ptext13                 text13       06BD
__ptext14                 text14       046A
__ptext15                 text15       0603
__ptext16                 text16       0764
__ptext17                 text17       002A
__ptext18                 text18       0DCD
__ptext19                 text19       0D89
__ptext2                  text2        0E4D
__ptext3                  text3        0F90
__ptext4                  text4        0E80
__ptext5                  text5        0546
__ptext6                  text6        0ECC
__ptext7                  text7        0F27
__ptext8                  text8        0DF4
__ptext9                  text9        0D6D
__stringbase              strings      0805
__stringtab               strings      0800
_init_ADC                 text3        0F90
_init_osc_MHz             text2        0E4D
_isr                      text14       046A
_isr$1002                 cstackBANK0  0049
_main                     maintext     038B
_setup                    text1        0E1D
btemp                     (abs)        007E
end_of_initialization     cinit        0026
init_ADC@adc_cs           cstackBANK1  00A4
init_ADC@vref_minus       cstackBANK1  00A1
init_ADC@vref_plus        cstackBANK1  00A0
init_osc_MHz@freq         cstackBANK1  00A2
interrupt_function        intentry     0004
intlevel0                 functab      0000
intlevel1                 functab      0000
intlevel2                 functab      0000
intlevel3                 functab      0000
intlevel4                 functab      0000
intlevel5                 functab      0000
reset_vec                 reset_vec    0000
saved_w                   (abs)        007E
start                     init         0010
start_initialization      cinit        0013
wtemp0                    (abs)        007E


MODULE INFORMATION

Module		Function		Class		Link	Load	Size
C:\Program Files\Microchip\xc8\v2.35\pic\sources\c90\common\awmod.c
		___awmod       		CODE           	0ECC	0000	91

C:\Program Files\Microchip\xc8\v2.35\pic\sources\c90\common\awmod.c estimated size: 91

C:\Program Files\Microchip\xc8\v2.35\pic\sources\c90\common\xxtofl.c
		___xxtofl      		CODE           	0603	0000	186

C:\Program Files\Microchip\xc8\v2.35\pic\sources\c90\common\xxtofl.c estimated size: 186

C:\Program Files\Microchip\xc8\v2.35\pic\sources\c90\common\fltol.c
		___fltol       		CODE           	0764	0000	124

C:\Program Files\Microchip\xc8\v2.35\pic\sources\c90\common\fltol.c estimated size: 124

C:\Program Files\Microchip\xc8\v2.35\pic\sources\c90\common\awdiv.c
		___awdiv       		CODE           	0F27	0000	105

C:\Program Files\Microchip\xc8\v2.35\pic\sources\c90\common\awdiv.c estimated size: 105

Osc_Config.c
		_init_osc_MHz  		CODE           	0E4D	0000	51

Osc_Config.c estimated size: 51

C:\Program Files\Microchip\xc8\v2.35\pic\sources\c90\common\sprcmul.c
		___flmul       		CODE           	002A	0000	865

C:\Program Files\Microchip\xc8\v2.35\pic\sources\c90\common\sprcmul.c estimated size: 865

shared
		__stringtab    		STRING         	0800	0000	6
		__initialization		CODE           	0013	0000	19

shared estimated size: 25

main_02.c
		_main          		CODE           	038B	0000	223
		_isr           		CODE           	046A	0000	220
		_Voltage_val   		CODE           	0546	0000	189
		_setup         		CODE           	0E1D	0000	48

main_02.c estimated size: 680

ADC.c
		_ADC_read      		CODE           	0D89	0000	30
		_init_ADC      		CODE           	0F90	0000	112
		_ADC_start     		CODE           	06BD	0000	167

ADC.c estimated size: 309

C:\Program Files\Microchip\xc8\v2.35\pic\sources\c90\common\Umul8_16.c
		__Umul8_16     		CODE           	0DCD	0000	39

C:\Program Files\Microchip\xc8\v2.35\pic\sources\c90\common\Umul8_16.c estimated size: 39

LCD.c
		_Lcd_Write_String		CODE           	0DF4	0000	41
		_Lcd_Init      		CODE           	0E80	0000	76
		_Lcd_Write_Char		CODE           	0D6D	0000	28
		_Lcd_Cmd       		CODE           	07E0	0000	32
		_Lcd_Set_Cursor		CODE           	0DA7	0000	38
		_Lcd_Port      		CODE           	0D65	0000	8

LCD.c estimated size: 223

